target datalayout = "e-m:e-p270:32:32-p271:32:32-p272:64:64-i64:64-i128:128-f80:128-n8:16:32:64-S128"
target triple = "x86_64-pc-linux-gnu"

%struct.rd_struct_s = type { i32, i16, i8, i8, ptr }
%struct.inode = type { ptr, ptr, ptr, i16, i16, %union.inode_ops_u, i16, ptr, [1 x i8] }
%union.inode_ops_u = type { ptr }

; Function Attrs: nounwind uwtable
define internal i64 @rd_read(ptr noundef %0, ptr noundef %1, i32 noundef %2, i32 noundef %3) #0 {
  %5 = alloca i64, align 8
  %6 = alloca ptr, align 8
  %7 = alloca ptr, align 8
  %8 = alloca i32, align 4
  %9 = alloca i32, align 4
  %10 = alloca ptr, align 8
  store ptr %0, ptr %6, align 8
  store ptr %1, ptr %7, align 8
  store i32 %2, ptr %8, align 4
  store i32 %3, ptr %9, align 4
  %11 = load ptr, ptr %6, align 8
  %12 = getelementptr inbounds %struct.inode, ptr %11, i32 0, i32 7
  %13 = load ptr, ptr %12, align 8
  store ptr %13, ptr %10, align 8
  br label %14

14:                                               ; preds = %4
  br label %15

15:                                               ; preds = %14
  %16 = load i32, ptr %8, align 4
  %17 = load ptr, ptr %10, align 8
  %18 = getelementptr inbounds %struct.rd_struct_s, ptr %17, i32 0, i32 0
  %19 = load i32, ptr %18, align 8
  %20 = icmp ult i32 %16, %19
  br i1 %20, label %21, label %53

21:                                               ; preds = %15
  %22 = load i32, ptr %8, align 4
  %23 = load i32, ptr %9, align 4
  %24 = add i32 %22, %23
  %25 = load ptr, ptr %10, align 8
  %26 = getelementptr inbounds %struct.rd_struct_s, ptr %25, i32 0, i32 0
  %27 = load i32, ptr %26, align 8
  %28 = icmp ule i32 %24, %27
  br i1 %28, label %29, label %53

29:                                               ; preds = %21
  br label %30

30:                                               ; preds = %29
  br label %31

31:                                               ; preds = %30
  %32 = load ptr, ptr %7, align 8
  %33 = load ptr, ptr %10, align 8
  %34 = getelementptr inbounds %struct.rd_struct_s, ptr %33, i32 0, i32 4
  %35 = load ptr, ptr %34, align 8
  %36 = load i32, ptr %8, align 4
  %37 = load ptr, ptr %10, align 8
  %38 = getelementptr inbounds %struct.rd_struct_s, ptr %37, i32 0, i32 1
  %39 = load i16, ptr %38, align 4
  %40 = zext i16 %39 to i32
  %41 = mul i32 %36, %40
  %42 = zext i32 %41 to i64
  %43 = getelementptr inbounds i8, ptr %35, i64 %42
  %44 = load i32, ptr %9, align 4
  %45 = load ptr, ptr %10, align 8
  %46 = getelementptr inbounds %struct.rd_struct_s, ptr %45, i32 0, i32 1
  %47 = load i16, ptr %46, align 4
  %48 = zext i16 %47 to i32
  %49 = mul i32 %44, %48
  %50 = zext i32 %49 to i64
  call void @llvm.memcpy.p0.p0.i64(ptr align 1 %32, ptr align 1 %43, i64 %50, i1 false)
  %51 = load i32, ptr %9, align 4
  %52 = zext i32 %51 to i64
  store i64 %52, ptr %5, align 8
  br label %54

53:                                               ; preds = %21, %15
  store i64 -22, ptr %5, align 8
  br label %54

54:                                               ; preds = %53, %31
  %55 = load i64, ptr %5, align 8
  ret i64 %55
}