; Function Attrs: mustprogress nofree norecurse nosync nounwind willreturn memory(readwrite, inaccessiblemem: none) uwtable
define internal range(i64 -22, 4294967296) i64 @rd_read(ptr noundef readonly captures(none) %0, ptr noundef writeonly captures(none) %1, i32 noundef %2, i32 noundef %3) #5 {
  %5 = getelementptr inbounds nuw i8, ptr %0, i64 48
  %6 = load ptr, ptr %5, align 8
  %7 = load i32, ptr %6, align 8
  %8 = icmp uge i32 %2, %7
  %9 = add i32 %3, %2
  %.not = icmp ugt i32 %9, %7
  %or.cond = or i1 %8, %.not
  br i1 %or.cond, label %22, label %10

10:                                               ; preds = %4
  %11 = getelementptr inbounds nuw i8, ptr %6, i64 8
  %12 = load ptr, ptr %11, align 8
  %13 = getelementptr inbounds nuw i8, ptr %6, i64 4
  %14 = load i16, ptr %13, align 4
  %15 = zext i16 %14 to i32
  %16 = mul i32 %2, %15
  %17 = zext i32 %16 to i64
  %18 = getelementptr inbounds nuw i8, ptr %12, i64 %17
  %19 = mul i32 %3, %15
  %20 = zext i32 %19 to i64
  tail call void @llvm.memcpy.p0.p0.i64(ptr align 1 %1, ptr align 1 %18, i64 %20, i1 false)
  %21 = zext i32 %3 to i64
  br label %22

22:                                               ; preds = %4, %10
  %.0 = phi i64 [ %21, %10 ], [ -22, %4 ]
  ret i64 %.0
}